; Function Attrs: mustprogress uwtable
define noundef zeroext i1 @_ZNK32pxrInternal_v0_24__pxrReserved__16UsdSkelAnimQuery29GetBlendShapeWeightAttributesEPSt6vectorINS_12UsdAttributeESaIS2_EE(ptr nocapture noundef nonnull readonly align 8 dereferenceable(8) %0, ptr noundef %1) local_unnamed_addr #0 align 2 {
  %3 = alloca %"class.pxrInternal_v0_24__pxrReserved__::TfCallContext", align 8
  %4 = alloca %"class.pxrInternal_v0_24__pxrReserved__::TfCallContext", align 8
  %5 = load ptr, ptr %0, align 8
  %.not.i.i.not = icmp eq ptr %5, null
  br i1 %.not.i.i.not, label %6, label %.critedge.thread

.critedge.thread:                                 ; preds = %2
  call void @llvm.lifetime.start.p0(i64 40, ptr nonnull %3)
  br label %_ZNK32pxrInternal_v0_24__pxrReserved__8TfRefPtrINS_21UsdSkel_AnimQueryImplEEptEv.exit

6:                                                ; preds = %2
  store ptr @.str, ptr %4, align 8
  %7 = getelementptr inbounds nuw i8, ptr %4, i64 8
  store ptr @__func__._ZNK32pxrInternal_v0_24__pxrReserved__16UsdSkelAnimQuery29GetBlendShapeWeightAttributesEPSt6vectorINS_12UsdAttributeESaIS2_EE, ptr %7, align 8
  %8 = getelementptr inbounds nuw i8, ptr %4, i64 16
  store i64 150, ptr %8, align 8
  %9 = getelementptr inbounds nuw i8, ptr %4, i64 24
  store ptr @__PRETTY_FUNCTION__._ZNK32pxrInternal_v0_24__pxrReserved__16UsdSkelAnimQuery29GetBlendShapeWeightAttributesEPSt6vectorINS_12UsdAttributeESaIS2_EE, ptr %9, align 8
  %10 = getelementptr inbounds nuw i8, ptr %4, i64 32
  store i8 0, ptr %10, align 8
  %11 = tail call noundef ptr (ptr, ...) @_ZN32pxrInternal_v0_24__pxrReserved__21Tf_VerifyStringFormatEPKcz(ptr noundef nonnull @.str.2)
  %12 = call noundef zeroext i1 @_ZN32pxrInternal_v0_24__pxrReserved__21Tf_FailedVerifyHelperERKNS_13TfCallContextEPKcS4_(ptr noundef nonnull align 8 dereferenceable(33) %4, ptr noundef nonnull @.str.1, ptr noundef %11)
  br i1 %12, label %.critedge, label %23

.critedge:                                        ; preds = %6
  %.pr = load ptr, ptr %0, align 8
  call void @llvm.lifetime.start.p0(i64 40, ptr nonnull %3)
  %.not.i = icmp eq ptr %.pr, null
  br i1 %.not.i, label %13, label %_ZNK32pxrInternal_v0_24__pxrReserved__8TfRefPtrINS_21UsdSkel_AnimQueryImplEEptEv.exit

13:                                               ; preds = %.critedge
  store ptr @.str.6, ptr %3, align 8
  %14 = getelementptr inbounds nuw i8, ptr %3, i64 8
  store ptr @__func__._ZNK32pxrInternal_v0_24__pxrReserved__8TfRefPtrINS_21UsdSkel_AnimQueryImplEEptEv, ptr %14, align 8
  %15 = getelementptr inbounds nuw i8, ptr %3, i64 16
  store i64 936, ptr %15, align 8
  %16 = getelementptr inbounds nuw i8, ptr %3, i64 24
  store ptr @__PRETTY_FUNCTION__._ZNK32pxrInternal_v0_24__pxrReserved__8TfRefPtrINS_21UsdSkel_AnimQueryImplEEptEv, ptr %16, align 8
  %17 = getelementptr inbounds nuw i8, ptr %3, i64 32
  store i8 0, ptr %17, align 8
  call void @_ZN32pxrInternal_v0_24__pxrReserved__40Tf_PostNullSmartPtrDereferenceFatalErrorERKNS_13TfCallContextEPKc(ptr noundef nonnull align 8 dereferenceable(33) %3, ptr noundef nonnull @_ZTSN32pxrInternal_v0_24__pxrReserved__8TfRefPtrINS_21UsdSkel_AnimQueryImplEEE) #11
  unreachable

_ZNK32pxrInternal_v0_24__pxrReserved__8TfRefPtrINS_21UsdSkel_AnimQueryImplEEptEv.exit: ; preds = %.critedge.thread, %.critedge
  %18 = phi ptr [ %5, %.critedge.thread ], [ %.pr, %.critedge ]
  call void @llvm.lifetime.end.p0(i64 40, ptr nonnull %3)
  %19 = load ptr, ptr %18, align 8
  %20 = getelementptr inbounds i8, ptr %19, i64 88
  %21 = load ptr, ptr %20, align 8
  %22 = call noundef zeroext i1 %21(ptr noundef nonnull align 8 dereferenceable(96) %18, ptr noundef %1)
  br label %23

23:                                               ; preds = %6, %_ZNK32pxrInternal_v0_24__pxrReserved__8TfRefPtrINS_21UsdSkel_AnimQueryImplEEptEv.exit
  %.0 = phi i1 [ %22, %_ZNK32pxrInternal_v0_24__pxrReserved__8TfRefPtrINS_21UsdSkel_AnimQueryImplEEptEv.exit ], [ false, %6 ]
  ret i1 %.0
}